; Function Attrs: null_pointer_is_valid sspstrong uwtable
define internal noundef zeroext i1 @dissect_mq_heur_nontcp(ptr noundef %0, ptr noundef %1, ptr noundef %2, ptr readnone captures(none) %3) #0 {
  %5 = tail call i32 @tvb_captured_length(ptr noundef %0)
  %6 = icmp ugt i32 %5, 3
  br i1 %6, label %7, label %dissect_mq_heur.exit

7:                                                ; preds = %4
  %8 = tail call i32 @tvb_reported_length(ptr noundef %0)
  %9 = icmp ugt i32 %8, 27
  br i1 %9, label %10, label %dissect_mq_heur.exit

10:                                               ; preds = %7
  %11 = tail call i32 @tvb_get_ntohl(ptr noundef %0, i32 noundef 0)
  %12 = and i32 %11, -256
  switch i32 %12, label %dissect_mq_heur.exit [
    i32 1414744064, label %13
    i32 -471676928, label %13
  ]

13:                                               ; preds = %10, %10
  %14 = tail call ptr @find_or_create_conversation(ptr noundef %1)
  %15 = tail call i32 @reassemble_mq(ptr noundef %0, ptr noundef %1, ptr noundef %2, ptr poison)
  br label %dissect_mq_heur.exit

dissect_mq_heur.exit:                             ; preds = %4, %7, %10, %13
  %.1.i = phi i1 [ true, %13 ], [ false, %7 ], [ false, %4 ], [ false, %10 ]
  ret i1 %.1.i
}